target datalayout = "e-m:e-p270:32:32-p271:32:32-p272:64:64-i64:64-i128:128-f80:128-n8:16:32:64-S128"
target triple = "x86_64-pc-linux-gnu"

%struct.mbedtls_ssl_config = type { i32, i32, i8, i8, i8, i8, i8, i8, i8, i8, i8, i8, i16, i8, i8, i8, ptr, i32, ptr, ptr, ptr, ptr, ptr, ptr, ptr, ptr, ptr, ptr, ptr, ptr, ptr, ptr, ptr, ptr, ptr, ptr, ptr, i64, ptr, ptr, ptr, ptr, ptr, ptr, ptr, ptr, %struct.mbedtls_mpi, %struct.mbedtls_mpi, ptr, i64, ptr, i64, ptr, i32, i32, i32, i32, [8 x i8], i32, i32, %union.mbedtls_ssl_user_data_t, ptr, ptr }
%struct.mbedtls_mpi = type { ptr, i16, i16 }
%union.mbedtls_ssl_user_data_t = type { i64 }
%struct.mbedtls_ssl_context = type { ptr, i32, i32, i32, i32, i32, ptr, ptr, ptr, ptr, ptr, ptr, ptr, ptr, ptr, ptr, ptr, ptr, ptr, ptr, ptr, ptr, ptr, ptr, ptr, ptr, ptr, ptr, ptr, ptr, ptr, ptr, ptr, i32, i64, i64, i16, i64, i64, i64, i64, i32, i32, i8, i8, i32, i8, ptr, ptr, ptr, ptr, ptr, ptr, ptr, i32, i64, i64, [8 x i8], i16, ptr, ptr, ptr, i64, i32, i64, [12 x i8], [12 x i8], [32 x i8], i8, i8, ptr, ptr, %union.mbedtls_ssl_user_data_t }
%struct.mbedtls_md_context_t = type { ptr, ptr, ptr }
%struct.mbedtls_ssl_handshake_params = type { i8, i8, i8, i8, i8, i32, i8, i8, i8, i8, ptr, ptr, ptr, ptr, ptr, i8, i8, i8, i8, i16, i16, [20 x i16], ptr, ptr, %struct.mbedtls_dhm_context, %struct.mbedtls_ecdh_context, i16, i64, i32, i8, [1024 x i8], i64, ptr, ptr, i64, i16, ptr, ptr, ptr, ptr, %struct.anon, ptr, i16, i8, i32, i32, i32, ptr, ptr, ptr, i32, ptr, [8 x i8], i8, [32 x i8], i8, i16, %struct.mbedtls_md_context_t, %struct.mbedtls_md_context_t, i16, i8, %union.anon.1, [64 x i8], [1076 x i8], i64, i32, i32, i8, ptr, ptr, %union.anon.4, %struct.mbedtls_ssl_tls13_handshake_secrets, ptr, i64, ptr }
%struct.mbedtls_dhm_context = type { %struct.mbedtls_mpi, %struct.mbedtls_mpi, %struct.mbedtls_mpi, %struct.mbedtls_mpi, %struct.mbedtls_mpi, %struct.mbedtls_mpi, %struct.mbedtls_mpi, %struct.mbedtls_mpi, %struct.mbedtls_mpi, %struct.mbedtls_mpi }
%struct.mbedtls_ecdh_context = type { i8, i32, i32, %union.anon }
%union.anon = type { %struct.mbedtls_ecdh_context_mbed }
%struct.mbedtls_ecdh_context_mbed = type { %struct.mbedtls_ecp_group, %struct.mbedtls_mpi, %struct.mbedtls_ecp_point, %struct.mbedtls_ecp_point, %struct.mbedtls_mpi }
%struct.mbedtls_ecp_group = type { i32, %struct.mbedtls_mpi, %struct.mbedtls_mpi, %struct.mbedtls_mpi, %struct.mbedtls_ecp_point, %struct.mbedtls_mpi, i64, i64, i32, ptr, ptr, ptr, ptr, ptr, i64 }
%struct.mbedtls_ecp_point = type { %struct.mbedtls_mpi, %struct.mbedtls_mpi, %struct.mbedtls_mpi }
%struct.anon = type { i64, i8, [4 x %struct.mbedtls_ssl_hs_buffer], %struct.anon.0 }
%struct.mbedtls_ssl_hs_buffer = type { i8, ptr, i64 }
%struct.anon.0 = type { ptr, i64, i32 }
%union.anon.1 = type { %struct.anon.2 }
%struct.anon.2 = type { i8, [64 x i8], i64 }
%union.anon.4 = type { [64 x i8] }
%struct.mbedtls_ssl_tls13_handshake_secrets = type { [64 x i8], [64 x i8] }

@.str = private unnamed_addr constant [121 x i8] c"generated/home/dtcxzyw/WorkSpace/Projects/compilers/llvm-opt-benchmark/bench/lief/bench_build/mbed_src/library/ssl_tls.c\00", align 1
@.str.67 = private unnamed_addr constant [24 x i8] c"mbedtls_ssl_read_record\00", align 1
@.str.76 = private unnamed_addr constant [14 x i8] c"calc_finished\00", align 1
@.str.81 = private unnamed_addr constant [18 x i8] c"=> parse finished\00", align 1
@.str.82 = private unnamed_addr constant [21 x i8] c"bad finished message\00", align 1
@.str.83 = private unnamed_addr constant [18 x i8] c"<= parse finished\00", align 1

; Function Attrs: inlinehint nounwind uwtable
define internal i64 @mbedtls_ssl_hs_hdr_len(ptr noundef %0) #3 {
  %2 = alloca i64, align 8
  %3 = alloca ptr, align 8
  store ptr %0, ptr %3, align 8, !tbaa !27
  %4 = load ptr, ptr %3, align 8, !tbaa !27
  %5 = getelementptr inbounds nuw %struct.mbedtls_ssl_context, ptr %4, i32 0, i32 0
  %6 = load ptr, ptr %5, align 8, !tbaa !30
  %7 = getelementptr inbounds nuw %struct.mbedtls_ssl_config, ptr %6, i32 0, i32 3
  %8 = load i8, ptr %7, align 1, !tbaa !35
  %9 = zext i8 %8 to i32
  %10 = icmp eq i32 %9, 1
  br i1 %10, label %11, label %12

11:                                               ; preds = %1
  store i64 12, ptr %2, align 8
  br label %13

12:                                               ; preds = %1
  store i64 4, ptr %2, align 8
  br label %13

13:                                               ; preds = %12, %11
  %14 = load i64, ptr %2, align 8
  ret i64 %14
}

; Function Attrs: nounwind uwtable
define hidden i32 @mbedtls_ssl_parse_finished(ptr noundef %0) #0 {
  %2 = alloca ptr, align 8
  %3 = alloca i32, align 4
  %4 = alloca i32, align 4
  %5 = alloca [12 x i8], align 1
  store ptr %0, ptr %2, align 8, !tbaa !27
  call void @llvm.lifetime.start.p0(i64 4, ptr %3) #11
  store i32 -110, ptr %3, align 4, !tbaa !10
  call void @llvm.lifetime.start.p0(i64 4, ptr %4) #11
  store i32 12, ptr %4, align 4, !tbaa !10
  call void @llvm.lifetime.start.p0(i64 12, ptr %5) #11
  %6 = load ptr, ptr %2, align 8, !tbaa !27
  call void (ptr, i32, ptr, i32, ptr, ...) @mbedtls_debug_print_msg(ptr noundef %6, i32 noundef 2, ptr noundef @.str, i32 noundef 8422, ptr noundef @.str.81)
  %7 = load ptr, ptr %2, align 8, !tbaa !27
  %8 = getelementptr inbounds nuw %struct.mbedtls_ssl_context, ptr %7, i32 0, i32 16
  %9 = load ptr, ptr %8, align 8, !tbaa !78
  %10 = getelementptr inbounds nuw %struct.mbedtls_ssl_handshake_params, ptr %9, i32 0, i32 13
  %11 = load ptr, ptr %10, align 8, !tbaa !291
  %12 = load ptr, ptr %2, align 8, !tbaa !27
  %13 = getelementptr inbounds [12 x i8], ptr %5, i64 0, i64 0
  %14 = load ptr, ptr %2, align 8, !tbaa !27
  %15 = getelementptr inbounds nuw %struct.mbedtls_ssl_context, ptr %14, i32 0, i32 0
  %16 = load ptr, ptr %15, align 8, !tbaa !30
  %17 = getelementptr inbounds nuw %struct.mbedtls_ssl_config, ptr %16, i32 0, i32 2
  %18 = load i8, ptr %17, align 8, !tbaa !110
  %19 = zext i8 %18 to i32
  %20 = xor i32 %19, 1
  %21 = call i32 %11(ptr noundef %12, ptr noundef %13, i32 noundef %20)
  store i32 %21, ptr %3, align 4, !tbaa !10
  %22 = load i32, ptr %3, align 4, !tbaa !10
  %23 = icmp ne i32 %22, 0
  br i1 %23, label %24, label %27

24:                                               ; preds = %1
  %25 = load ptr, ptr %2, align 8, !tbaa !27
  %26 = load i32, ptr %3, align 4, !tbaa !10
  call void @mbedtls_debug_print_ret(ptr noundef %25, i32 noundef 1, ptr noundef @.str, i32 noundef 8426, ptr noundef @.str.76, i32 noundef %26)
  br label %27

27:                                               ; preds = %24, %1
  %28 = load ptr, ptr %2, align 8, !tbaa !27
  %29 = call i32 @mbedtls_ssl_read_record(ptr noundef %28, i32 noundef 1)
  store i32 %29, ptr %3, align 4, !tbaa !10
  %30 = icmp ne i32 %29, 0
  br i1 %30, label %31, label %34

31:                                               ; preds = %27
  %32 = load ptr, ptr %2, align 8, !tbaa !27
  %33 = load i32, ptr %3, align 4, !tbaa !10
  call void @mbedtls_debug_print_ret(ptr noundef %32, i32 noundef 1, ptr noundef @.str, i32 noundef 8430, ptr noundef @.str.67, i32 noundef %33)
  br label %142

34:                                               ; preds = %27
  %35 = load ptr, ptr %2, align 8, !tbaa !27
  %36 = getelementptr inbounds nuw %struct.mbedtls_ssl_context, ptr %35, i32 0, i32 33
  %37 = load i32, ptr %36, align 8, !tbaa !127
  %38 = icmp ne i32 %37, 22
  br i1 %38, label %39, label %43

39:                                               ; preds = %34
  %40 = load ptr, ptr %2, align 8, !tbaa !27
  call void (ptr, i32, ptr, i32, ptr, ...) @mbedtls_debug_print_msg(ptr noundef %40, i32 noundef 1, ptr noundef @.str, i32 noundef 8435, ptr noundef @.str.82)
  %41 = load ptr, ptr %2, align 8, !tbaa !27
  %42 = call i32 @mbedtls_ssl_send_alert_message(ptr noundef %41, i8 noundef zeroext 2, i8 noundef zeroext 10)
  store i32 -30464, ptr %3, align 4, !tbaa !10
  br label %142

43:                                               ; preds = %34
  %44 = load ptr, ptr %2, align 8, !tbaa !27
  %45 = getelementptr inbounds nuw %struct.mbedtls_ssl_context, ptr %44, i32 0, i32 31
  %46 = load ptr, ptr %45, align 8, !tbaa !97
  %47 = getelementptr inbounds i8, ptr %46, i64 0
  %48 = load i8, ptr %47, align 1, !tbaa !87
  %49 = zext i8 %48 to i32
  %50 = icmp ne i32 %49, 20
  br i1 %50, label %51, label %54

51:                                               ; preds = %43
  %52 = load ptr, ptr %2, align 8, !tbaa !27
  %53 = call i32 @mbedtls_ssl_send_alert_message(ptr noundef %52, i8 noundef zeroext 2, i8 noundef zeroext 10)
  store i32 -30464, ptr %3, align 4, !tbaa !10
  br label %142

54:                                               ; preds = %43
  %55 = load ptr, ptr %2, align 8, !tbaa !27
  %56 = getelementptr inbounds nuw %struct.mbedtls_ssl_context, ptr %55, i32 0, i32 40
  %57 = load i64, ptr %56, align 8, !tbaa !129
  %58 = load ptr, ptr %2, align 8, !tbaa !27
  %59 = call i64 @mbedtls_ssl_hs_hdr_len(ptr noundef %58)
  %60 = load i32, ptr %4, align 4, !tbaa !10
  %61 = zext i32 %60 to i64
  %62 = add i64 %59, %61
  %63 = icmp ne i64 %57, %62
  br i1 %63, label %64, label %68

64:                                               ; preds = %54
  %65 = load ptr, ptr %2, align 8, !tbaa !27
  call void (ptr, i32, ptr, i32, ptr, ...) @mbedtls_debug_print_msg(ptr noundef %65, i32 noundef 1, ptr noundef @.str, i32 noundef 8450, ptr noundef @.str.82)
  %66 = load ptr, ptr %2, align 8, !tbaa !27
  %67 = call i32 @mbedtls_ssl_send_alert_message(ptr noundef %66, i8 noundef zeroext 2, i8 noundef zeroext 50)
  store i32 -29440, ptr %3, align 4, !tbaa !10
  br label %142

68:                                               ; preds = %54
  %69 = load ptr, ptr %2, align 8, !tbaa !27
  %70 = getelementptr inbounds nuw %struct.mbedtls_ssl_context, ptr %69, i32 0, i32 31
  %71 = load ptr, ptr %70, align 8, !tbaa !97
  %72 = load ptr, ptr %2, align 8, !tbaa !27
  %73 = call i64 @mbedtls_ssl_hs_hdr_len(ptr noundef %72)
  %74 = getelementptr inbounds nuw i8, ptr %71, i64 %73
  %75 = getelementptr inbounds [12 x i8], ptr %5, i64 0, i64 0
  %76 = load i32, ptr %4, align 4, !tbaa !10
  %77 = zext i32 %76 to i64
  %78 = call i32 @mbedtls_ct_memcmp(ptr noundef %74, ptr noundef %75, i64 noundef %77)
  %79 = icmp ne i32 %78, 0
  br i1 %79, label %80, label %84

80:                                               ; preds = %68
  %81 = load ptr, ptr %2, align 8, !tbaa !27
  call void (ptr, i32, ptr, i32, ptr, ...) @mbedtls_debug_print_msg(ptr noundef %81, i32 noundef 1, ptr noundef @.str, i32 noundef 8459, ptr noundef @.str.82)
  %82 = load ptr, ptr %2, align 8, !tbaa !27
  %83 = call i32 @mbedtls_ssl_send_alert_message(ptr noundef %82, i8 noundef zeroext 2, i8 noundef zeroext 51)
  store i32 -28160, ptr %3, align 4, !tbaa !10
  br label %142

84:                                               ; preds = %68
  %85 = load i32, ptr %4, align 4, !tbaa !10
  %86 = zext i32 %85 to i64
  %87 = load ptr, ptr %2, align 8, !tbaa !27
  %88 = getelementptr inbounds nuw %struct.mbedtls_ssl_context, ptr %87, i32 0, i32 64
  store i64 %86, ptr %88, align 8, !tbaa !143
  %89 = load ptr, ptr %2, align 8, !tbaa !27
  %90 = getelementptr inbounds nuw %struct.mbedtls_ssl_context, ptr %89, i32 0, i32 66
  %91 = getelementptr inbounds [12 x i8], ptr %90, i64 0, i64 0
  %92 = getelementptr inbounds [12 x i8], ptr %5, i64 0, i64 0
  %93 = load i32, ptr %4, align 4, !tbaa !10
  %94 = zext i32 %93 to i64
  call void @llvm.memcpy.p0.p0.i64(ptr align 4 %91, ptr align 1 %92, i64 %94, i1 false)
  %95 = load ptr, ptr %2, align 8, !tbaa !27
  %96 = getelementptr inbounds nuw %struct.mbedtls_ssl_context, ptr %95, i32 0, i32 16
  %97 = load ptr, ptr %96, align 8, !tbaa !78
  %98 = getelementptr inbounds nuw %struct.mbedtls_ssl_handshake_params, ptr %97, i32 0, i32 0
  %99 = load i8, ptr %98, align 8, !tbaa !174
  %100 = zext i8 %99 to i32
  %101 = icmp ne i32 %100, 0
  br i1 %101, label %102, label %125

102:                                              ; preds = %84
  %103 = load ptr, ptr %2, align 8, !tbaa !27
  %104 = getelementptr inbounds nuw %struct.mbedtls_ssl_context, ptr %103, i32 0, i32 0
  %105 = load ptr, ptr %104, align 8, !tbaa !30
  %106 = getelementptr inbounds nuw %struct.mbedtls_ssl_config, ptr %105, i32 0, i32 2
  %107 = load i8, ptr %106, align 8, !tbaa !110
  %108 = zext i8 %107 to i32
  %109 = icmp eq i32 %108, 0
  br i1 %109, label %110, label %113

110:                                              ; preds = %102
  %111 = load ptr, ptr %2, align 8, !tbaa !27
  %112 = getelementptr inbounds nuw %struct.mbedtls_ssl_context, ptr %111, i32 0, i32 1
  store i32 10, ptr %112, align 8, !tbaa !49
  br label %113

113:                                              ; preds = %110, %102
  %114 = load ptr, ptr %2, align 8, !tbaa !27
  %115 = getelementptr inbounds nuw %struct.mbedtls_ssl_context, ptr %114, i32 0, i32 0
  %116 = load ptr, ptr %115, align 8, !tbaa !30
  %117 = getelementptr inbounds nuw %struct.mbedtls_ssl_config, ptr %116, i32 0, i32 2
  %118 = load i8, ptr %117, align 8, !tbaa !110
  %119 = zext i8 %118 to i32
  %120 = icmp eq i32 %119, 1
  br i1 %120, label %121, label %124

121:                                              ; preds = %113
  %122 = load ptr, ptr %2, align 8, !tbaa !27
  %123 = getelementptr inbounds nuw %struct.mbedtls_ssl_context, ptr %122, i32 0, i32 1
  store i32 15, ptr %123, align 8, !tbaa !49
  br label %124

124:                                              ; preds = %121, %113
  br label %130

125:                                              ; preds = %84
  %126 = load ptr, ptr %2, align 8, !tbaa !27
  %127 = getelementptr inbounds nuw %struct.mbedtls_ssl_context, ptr %126, i32 0, i32 1
  %128 = load i32, ptr %127, align 8, !tbaa !49
  %129 = add nsw i32 %128, 1
  store i32 %129, ptr %127, align 8, !tbaa !49
  br label %130

130:                                              ; preds = %125, %124
  %131 = load ptr, ptr %2, align 8, !tbaa !27
  %132 = getelementptr inbounds nuw %struct.mbedtls_ssl_context, ptr %131, i32 0, i32 0
  %133 = load ptr, ptr %132, align 8, !tbaa !30
  %134 = getelementptr inbounds nuw %struct.mbedtls_ssl_config, ptr %133, i32 0, i32 3
  %135 = load i8, ptr %134, align 1, !tbaa !35
  %136 = zext i8 %135 to i32
  %137 = icmp eq i32 %136, 1
  br i1 %137, label %138, label %140

138:                                              ; preds = %130
  %139 = load ptr, ptr %2, align 8, !tbaa !27
  call void @mbedtls_ssl_recv_flight_completed(ptr noundef %139)
  br label %140

140:                                              ; preds = %138, %130
  %141 = load ptr, ptr %2, align 8, !tbaa !27
  call void (ptr, i32, ptr, i32, ptr, ...) @mbedtls_debug_print_msg(ptr noundef %141, i32 noundef 2, ptr noundef @.str, i32 noundef 8492, ptr noundef @.str.83)
  br label %142

142:                                              ; preds = %140, %80, %64, %51, %39, %31
  %143 = getelementptr inbounds [12 x i8], ptr %5, i64 0, i64 0
  %144 = load i32, ptr %4, align 4, !tbaa !10
  %145 = zext i32 %144 to i64
  call void @mbedtls_platform_zeroize(ptr noundef %143, i64 noundef %145)
  %146 = load i32, ptr %3, align 4, !tbaa !10
  call void @llvm.lifetime.end.p0(i64 12, ptr %5) #11
  call void @llvm.lifetime.end.p0(i64 4, ptr %4) #11
  call void @llvm.lifetime.end.p0(i64 4, ptr %3) #11
  ret i32 %146
}