; Function Attrs: nounwind uwtable
define hidden i32 @mbedtls_ssl_parse_finished(ptr noundef %0) local_unnamed_addr #1 {
  %2 = alloca [12 x i8], align 1
  call void @llvm.lifetime.start.p0(i64 12, ptr nonnull %2) #26
  tail call void (ptr, i32, ptr, i32, ptr, ...) @mbedtls_debug_print_msg(ptr noundef %0, i32 noundef 2, ptr noundef nonnull @.str, i32 noundef 8422, ptr noundef nonnull @.str.81) #26
  %3 = getelementptr inbounds nuw i8, ptr %0, i64 112
  %4 = load ptr, ptr %3, align 8, !tbaa !70
  %5 = getelementptr inbounds nuw i8, ptr %4, i64 40
  %6 = load ptr, ptr %5, align 8, !tbaa !263
  %7 = load ptr, ptr %0, align 8, !tbaa !23
  %8 = getelementptr inbounds nuw i8, ptr %7, i64 8
  %9 = load i8, ptr %8, align 8, !tbaa !94
  %10 = xor i8 %9, 1
  %11 = zext i8 %10 to i32
  %12 = call i32 %6(ptr noundef nonnull %0, ptr noundef nonnull %2, i32 noundef %11) #26
  %.not = icmp eq i32 %12, 0
  br i1 %.not, label %14, label %13

13:                                               ; preds = %1
  call void @mbedtls_debug_print_ret(ptr noundef nonnull %0, i32 noundef 1, ptr noundef nonnull @.str, i32 noundef 8426, ptr noundef nonnull @.str.76, i32 noundef %12) #26
  br label %14

14:                                               ; preds = %13, %1
  %15 = call i32 @mbedtls_ssl_read_record(ptr noundef nonnull %0, i32 noundef 1) #26
  %.not41 = icmp eq i32 %15, 0
  br i1 %.not41, label %17, label %16

16:                                               ; preds = %14
  call void @mbedtls_debug_print_ret(ptr noundef nonnull %0, i32 noundef 1, ptr noundef nonnull @.str, i32 noundef 8430, ptr noundef nonnull @.str.67, i32 noundef %15) #26
  br label %64

17:                                               ; preds = %14
  %18 = getelementptr inbounds nuw i8, ptr %0, i64 248
  %19 = load i32, ptr %18, align 8, !tbaa !113
  %.not42 = icmp eq i32 %19, 22
  br i1 %.not42, label %22, label %20

20:                                               ; preds = %17
  call void (ptr, i32, ptr, i32, ptr, ...) @mbedtls_debug_print_msg(ptr noundef nonnull %0, i32 noundef 1, ptr noundef nonnull @.str, i32 noundef 8435, ptr noundef nonnull @.str.82) #26
  %21 = call i32 @mbedtls_ssl_send_alert_message(ptr noundef nonnull %0, i8 noundef zeroext 2, i8 noundef zeroext 10) #26
  br label %64

22:                                               ; preds = %17
  %23 = getelementptr inbounds nuw i8, ptr %0, i64 232
  %24 = load ptr, ptr %23, align 8, !tbaa !278
  %25 = load i8, ptr %24, align 1, !tbaa !80
  %.not43 = icmp eq i8 %25, 20
  br i1 %.not43, label %28, label %26

26:                                               ; preds = %22
  %27 = call i32 @mbedtls_ssl_send_alert_message(ptr noundef nonnull %0, i8 noundef zeroext 2, i8 noundef zeroext 10) #26
  br label %64

28:                                               ; preds = %22
  %29 = getelementptr inbounds nuw i8, ptr %0, i64 304
  %30 = load i64, ptr %29, align 8, !tbaa !277
  %.val = load ptr, ptr %0, align 8, !tbaa !23
  %31 = getelementptr i8, ptr %.val, i64 9
  %.val.val = load i8, ptr %31, align 1, !tbaa !29
  %32 = icmp eq i8 %.val.val, 1
  %..i = select i1 %32, i64 12, i64 4
  %33 = add nuw nsw i64 %..i, 12
  %.not44 = icmp eq i64 %30, %33
  br i1 %.not44, label %36, label %34

34:                                               ; preds = %28
  call void (ptr, i32, ptr, i32, ptr, ...) @mbedtls_debug_print_msg(ptr noundef nonnull %0, i32 noundef 1, ptr noundef nonnull @.str, i32 noundef 8450, ptr noundef nonnull @.str.82) #26
  %35 = call i32 @mbedtls_ssl_send_alert_message(ptr noundef nonnull %0, i8 noundef zeroext 2, i8 noundef zeroext 50) #26
  br label %64

36:                                               ; preds = %28
  %37 = getelementptr inbounds nuw i8, ptr %24, i64 %..i
  %38 = call i32 @mbedtls_ct_memcmp(ptr noundef nonnull %37, ptr noundef nonnull %2, i64 noundef 12) #26
  %.not45 = icmp eq i32 %38, 0
  br i1 %.not45, label %41, label %39

39:                                               ; preds = %36
  call void (ptr, i32, ptr, i32, ptr, ...) @mbedtls_debug_print_msg(ptr noundef nonnull %0, i32 noundef 1, ptr noundef nonnull @.str, i32 noundef 8459, ptr noundef nonnull @.str.82) #26
  %40 = call i32 @mbedtls_ssl_send_alert_message(ptr noundef nonnull %0, i8 noundef zeroext 2, i8 noundef zeroext 51) #26
  br label %64

41:                                               ; preds = %36
  %42 = getelementptr inbounds nuw i8, ptr %0, i64 472
  store i64 12, ptr %42, align 8, !tbaa !287
  %43 = getelementptr inbounds nuw i8, ptr %0, i64 492
  call void @llvm.memcpy.p0.p0.i64(ptr noundef nonnull align 4 dereferenceable(12) %43, ptr noundef nonnull align 1 dereferenceable(12) %2, i64 12, i1 false)
  %44 = load ptr, ptr %3, align 8, !tbaa !70
  %45 = load i8, ptr %44, align 8, !tbaa !152
  %.not46 = icmp eq i8 %45, 0
  br i1 %.not46, label %53, label %46

46:                                               ; preds = %41
  %47 = load ptr, ptr %0, align 8, !tbaa !23
  %48 = getelementptr inbounds nuw i8, ptr %47, i64 8
  %49 = load i8, ptr %48, align 8, !tbaa !94
  switch i8 %49, label %57 [
    i8 0, label %.thread
    i8 1, label %51
  ]

.thread:                                          ; preds = %46
  %50 = getelementptr inbounds nuw i8, ptr %0, i64 8
  store i32 10, ptr %50, align 8, !tbaa !34
  br label %57

51:                                               ; preds = %46
  %52 = getelementptr inbounds nuw i8, ptr %0, i64 8
  store i32 15, ptr %52, align 8, !tbaa !34
  br label %57

53:                                               ; preds = %41
  %54 = getelementptr inbounds nuw i8, ptr %0, i64 8
  %55 = load i32, ptr %54, align 8, !tbaa !34
  %56 = add nsw i32 %55, 1
  store i32 %56, ptr %54, align 8, !tbaa !34
  %.pre = load ptr, ptr %0, align 8, !tbaa !23
  br label %57

57:                                               ; preds = %46, %.thread, %51, %53
  %58 = phi ptr [ %47, %46 ], [ %47, %.thread ], [ %47, %51 ], [ %.pre, %53 ]
  %59 = getelementptr inbounds nuw i8, ptr %58, i64 9
  %60 = load i8, ptr %59, align 1, !tbaa !29
  %61 = icmp eq i8 %60, 1
  br i1 %61, label %62, label %63

62:                                               ; preds = %57
  call void @mbedtls_ssl_recv_flight_completed(ptr noundef nonnull %0) #26
  br label %63

63:                                               ; preds = %62, %57
  call void (ptr, i32, ptr, i32, ptr, ...) @mbedtls_debug_print_msg(ptr noundef nonnull %0, i32 noundef 2, ptr noundef nonnull @.str, i32 noundef 8492, ptr noundef nonnull @.str.83) #26
  br label %64

64:                                               ; preds = %63, %39, %34, %26, %20, %16
  %.0 = phi i32 [ %15, %16 ], [ -30464, %20 ], [ -30464, %26 ], [ -29440, %34 ], [ -28160, %39 ], [ 0, %63 ]
  call void @mbedtls_platform_zeroize(ptr noundef nonnull %2, i64 noundef 12) #26
  call void @llvm.lifetime.end.p0(i64 12, ptr nonnull %2) #26
  ret i32 %.0
}